target datalayout = "e-m:e-p270:32:32-p271:32:32-p272:64:64-i64:64-i128:128-f80:128-n8:16:32:64-S128"
target triple = "x86_64-unknown-linux-gnu"

%class.btVector3 = type { [4 x float] }
%class.btConeShape = type { %class.btConvexInternalShape, float, float, float, [3 x i32] }
%class.btConvexInternalShape = type { %class.btConvexShape, %class.btVector3, %class.btVector3, float, float }
%class.btConvexShape = type { %class.btCollisionShape }
%class.btCollisionShape = type { ptr, i32, ptr, i32, i32 }

; Function Attrs: mustprogress nounwind uwtable
define linkonce_odr dso_local noundef ptr @_ZN9btVector3cvPfEv(ptr noundef nonnull align 4 dereferenceable(16) %this) #1 comdat align 2 {
entry:
  %this.addr = alloca ptr, align 8
  store ptr %this, ptr %this.addr, align 8
  %this1 = load ptr, ptr %this.addr, align 8
  %m_floats = getelementptr inbounds %class.btVector3, ptr %this1, i32 0, i32 0
  %arrayidx = getelementptr inbounds [4 x float], ptr %m_floats, i64 0, i64 0
  ret ptr %arrayidx
}

; Function Attrs: mustprogress uwtable
define dso_local void @_ZN11btConeShape14setConeUpIndexEi(ptr noundef nonnull align 8 dereferenceable(96) %this, i32 noundef %upIndex) #2 align 2 {
entry:
  %this.addr = alloca ptr, align 8
  %upIndex.addr = alloca i32, align 4
  store ptr %this, ptr %this.addr, align 8
  store i32 %upIndex, ptr %upIndex.addr, align 4
  %this1 = load ptr, ptr %this.addr, align 8
  %0 = load i32, ptr %upIndex.addr, align 4
  switch i32 %0, label %sw.default [
    i32 0, label %sw.bb
    i32 1, label %sw.bb6
    i32 2, label %sw.bb13
  ]

sw.bb:                                            ; preds = %entry
  %m_coneIndices = getelementptr inbounds %class.btConeShape, ptr %this1, i32 0, i32 4
  %arrayidx = getelementptr inbounds [3 x i32], ptr %m_coneIndices, i64 0, i64 0
  store i32 1, ptr %arrayidx, align 4
  %m_coneIndices2 = getelementptr inbounds %class.btConeShape, ptr %this1, i32 0, i32 4
  %arrayidx3 = getelementptr inbounds [3 x i32], ptr %m_coneIndices2, i64 0, i64 1
  store i32 0, ptr %arrayidx3, align 4
  %m_coneIndices4 = getelementptr inbounds %class.btConeShape, ptr %this1, i32 0, i32 4
  %arrayidx5 = getelementptr inbounds [3 x i32], ptr %m_coneIndices4, i64 0, i64 2
  store i32 2, ptr %arrayidx5, align 4
  br label %sw.epilog

sw.bb6:                                           ; preds = %entry
  %m_coneIndices7 = getelementptr inbounds %class.btConeShape, ptr %this1, i32 0, i32 4
  %arrayidx8 = getelementptr inbounds [3 x i32], ptr %m_coneIndices7, i64 0, i64 0
  store i32 0, ptr %arrayidx8, align 4
  %m_coneIndices9 = getelementptr inbounds %class.btConeShape, ptr %this1, i32 0, i32 4
  %arrayidx10 = getelementptr inbounds [3 x i32], ptr %m_coneIndices9, i64 0, i64 1
  store i32 1, ptr %arrayidx10, align 4
  %m_coneIndices11 = getelementptr inbounds %class.btConeShape, ptr %this1, i32 0, i32 4
  %arrayidx12 = getelementptr inbounds [3 x i32], ptr %m_coneIndices11, i64 0, i64 2
  store i32 2, ptr %arrayidx12, align 4
  br label %sw.epilog

sw.bb13:                                          ; preds = %entry
  %m_coneIndices14 = getelementptr inbounds %class.btConeShape, ptr %this1, i32 0, i32 4
  %arrayidx15 = getelementptr inbounds [3 x i32], ptr %m_coneIndices14, i64 0, i64 0
  store i32 0, ptr %arrayidx15, align 4
  %m_coneIndices16 = getelementptr inbounds %class.btConeShape, ptr %this1, i32 0, i32 4
  %arrayidx17 = getelementptr inbounds [3 x i32], ptr %m_coneIndices16, i64 0, i64 1
  store i32 2, ptr %arrayidx17, align 4
  %m_coneIndices18 = getelementptr inbounds %class.btConeShape, ptr %this1, i32 0, i32 4
  %arrayidx19 = getelementptr inbounds [3 x i32], ptr %m_coneIndices18, i64 0, i64 2
  store i32 1, ptr %arrayidx19, align 4
  br label %sw.epilog

sw.default:                                       ; preds = %entry
  br label %sw.epilog

sw.epilog:                                        ; preds = %sw.default, %sw.bb13, %sw.bb6, %sw.bb
  %m_radius = getelementptr inbounds %class.btConeShape, ptr %this1, i32 0, i32 2
  %1 = load float, ptr %m_radius, align 4
  %m_implicitShapeDimensions = getelementptr inbounds %class.btConvexInternalShape, ptr %this1, i32 0, i32 2
  %call = call noundef ptr @_ZN9btVector3cvPfEv(ptr noundef nonnull align 4 dereferenceable(16) %m_implicitShapeDimensions)
  %m_coneIndices20 = getelementptr inbounds %class.btConeShape, ptr %this1, i32 0, i32 4
  %arrayidx21 = getelementptr inbounds [3 x i32], ptr %m_coneIndices20, i64 0, i64 0
  %2 = load i32, ptr %arrayidx21, align 4
  %idxprom = sext i32 %2 to i64
  %arrayidx22 = getelementptr inbounds float, ptr %call, i64 %idxprom
  store float %1, ptr %arrayidx22, align 4
  %m_height = getelementptr inbounds %class.btConeShape, ptr %this1, i32 0, i32 3
  %3 = load float, ptr %m_height, align 8
  %m_implicitShapeDimensions23 = getelementptr inbounds %class.btConvexInternalShape, ptr %this1, i32 0, i32 2
  %call24 = call noundef ptr @_ZN9btVector3cvPfEv(ptr noundef nonnull align 4 dereferenceable(16) %m_implicitShapeDimensions23)
  %m_coneIndices25 = getelementptr inbounds %class.btConeShape, ptr %this1, i32 0, i32 4
  %arrayidx26 = getelementptr inbounds [3 x i32], ptr %m_coneIndices25, i64 0, i64 1
  %4 = load i32, ptr %arrayidx26, align 4
  %idxprom27 = sext i32 %4 to i64
  %arrayidx28 = getelementptr inbounds float, ptr %call24, i64 %idxprom27
  store float %3, ptr %arrayidx28, align 4
  %m_radius29 = getelementptr inbounds %class.btConeShape, ptr %this1, i32 0, i32 2
  %5 = load float, ptr %m_radius29, align 4
  %m_implicitShapeDimensions30 = getelementptr inbounds %class.btConvexInternalShape, ptr %this1, i32 0, i32 2
  %call31 = call noundef ptr @_ZN9btVector3cvPfEv(ptr noundef nonnull align 4 dereferenceable(16) %m_implicitShapeDimensions30)
  %m_coneIndices32 = getelementptr inbounds %class.btConeShape, ptr %this1, i32 0, i32 4
  %arrayidx33 = getelementptr inbounds [3 x i32], ptr %m_coneIndices32, i64 0, i64 2
  %6 = load i32, ptr %arrayidx33, align 4
  %idxprom34 = sext i32 %6 to i64
  %arrayidx35 = getelementptr inbounds float, ptr %call31, i64 %idxprom34
  store float %5, ptr %arrayidx35, align 4
  ret void
}