; Function Attrs: mustprogress nofree norecurse nosync nounwind willreturn memory(argmem: readwrite) uwtable
define dso_local void @_ZN11btConeShape14setConeUpIndexEi(ptr nocapture noundef nonnull align 8 dereferenceable(96) %this, i32 noundef %upIndex) local_unnamed_addr #2 align 2 {
entry:
  %m_coneIndices20.phi.trans.insert = getelementptr inbounds i8, ptr %this, i64 84
  switch i32 %upIndex, label %entry.sw.epilog_crit_edge [
    i32 0, label %sw.bb
    i32 1, label %sw.bb6
    i32 2, label %sw.bb13
  ]

entry.sw.epilog_crit_edge:                        ; preds = %entry
  %.pre = load i32, ptr %m_coneIndices20.phi.trans.insert, align 4
  %0 = sext i32 %.pre to i64
  br label %sw.epilog

sw.bb:                                            ; preds = %entry
  store i32 1, ptr %m_coneIndices20.phi.trans.insert, align 4
  %arrayidx3 = getelementptr inbounds i8, ptr %this, i64 88
  store i32 0, ptr %arrayidx3, align 8
  %arrayidx5 = getelementptr inbounds i8, ptr %this, i64 92
  store i32 2, ptr %arrayidx5, align 4
  br label %sw.epilog

sw.bb6:                                           ; preds = %entry
  store i32 0, ptr %m_coneIndices20.phi.trans.insert, align 4
  %arrayidx10 = getelementptr inbounds i8, ptr %this, i64 88
  store i32 1, ptr %arrayidx10, align 8
  %arrayidx12 = getelementptr inbounds i8, ptr %this, i64 92
  store i32 2, ptr %arrayidx12, align 4
  br label %sw.epilog

sw.bb13:                                          ; preds = %entry
  store i32 0, ptr %m_coneIndices20.phi.trans.insert, align 4
  %arrayidx17 = getelementptr inbounds i8, ptr %this, i64 88
  store i32 2, ptr %arrayidx17, align 8
  %arrayidx19 = getelementptr inbounds i8, ptr %this, i64 92
  store i32 1, ptr %arrayidx19, align 4
  br label %sw.epilog

sw.epilog:                                        ; preds = %entry.sw.epilog_crit_edge, %sw.bb13, %sw.bb6, %sw.bb
  %idxprom = phi i64 [ %0, %entry.sw.epilog_crit_edge ], [ 0, %sw.bb13 ], [ 0, %sw.bb6 ], [ 1, %sw.bb ]
  %m_radius = getelementptr inbounds i8, ptr %this, i64 76
  %1 = load float, ptr %m_radius, align 4
  %m_implicitShapeDimensions = getelementptr inbounds i8, ptr %this, i64 48
  %arrayidx22 = getelementptr inbounds float, ptr %m_implicitShapeDimensions, i64 %idxprom
  store float %1, ptr %arrayidx22, align 4
  %m_height = getelementptr inbounds i8, ptr %this, i64 80
  %2 = load float, ptr %m_height, align 8
  %arrayidx26 = getelementptr inbounds i8, ptr %this, i64 88
  %3 = load i32, ptr %arrayidx26, align 8
  %idxprom27 = sext i32 %3 to i64
  %arrayidx28 = getelementptr inbounds float, ptr %m_implicitShapeDimensions, i64 %idxprom27
  store float %2, ptr %arrayidx28, align 4
  %4 = load float, ptr %m_radius, align 4
  %arrayidx33 = getelementptr inbounds i8, ptr %this, i64 92
  %5 = load i32, ptr %arrayidx33, align 4
  %idxprom34 = sext i32 %5 to i64
  %arrayidx35 = getelementptr inbounds float, ptr %m_implicitShapeDimensions, i64 %idxprom34
  store float %4, ptr %arrayidx35, align 4
  ret void
}